target datalayout = "e-m:e-p270:32:32-p271:32:32-p272:64:64-i64:64-i128:128-f80:128-n8:16:32:64-S128"
target triple = "x86_64-pc-linux-gnu"

%struct.cli_ac_data = type { ptr, i32, i32, i32, ptr, ptr, ptr, ptr, ptr, ptr, [32 x i32], ptr, i32 }

; Function Attrs: nounwind uwtable
define void @lsig_increment_subsig_match(ptr noundef %0, i32 noundef %1, i32 noundef %2) #0 {
  %4 = alloca ptr, align 8
  %5 = alloca i32, align 4
  %6 = alloca i32, align 4
  store ptr %0, ptr %4, align 8, !tbaa !88
  store i32 %1, ptr %5, align 4, !tbaa !49
  store i32 %2, ptr %6, align 4, !tbaa !49
  %7 = load ptr, ptr %4, align 8, !tbaa !88
  %8 = getelementptr inbounds nuw %struct.cli_ac_data, ptr %7, i32 0, i32 4
  %9 = load ptr, ptr %8, align 8, !tbaa !100
  %10 = load i32, ptr %5, align 4, !tbaa !49
  %11 = zext i32 %10 to i64
  %12 = getelementptr inbounds nuw ptr, ptr %9, i64 %11
  %13 = load ptr, ptr %12, align 8, !tbaa !48
  %14 = load i32, ptr %6, align 4, !tbaa !49
  %15 = zext i32 %14 to i64
  %16 = getelementptr inbounds nuw i32, ptr %13, i64 %15
  %17 = load i32, ptr %16, align 4, !tbaa !49
  %18 = add i32 %17, 1
  store i32 %18, ptr %16, align 4, !tbaa !49
  ret void
}